(dp1
S'pin'
p2
S'ctl00_BodyContent_lbl_pin'
p3
sS'attic'
p4
S'ctl00_BodyContent_lbl_attic'
p5
sS'basement'
p6
S'ctl00_BodyContent_lbl_Basement'
p7
sS'bldg_age'
p8
S'ctl00_BodyContent_lbl_age'
p9
sS'land_sqft'
p10
S'ctl00_BodyContent_lbl_lsf'
p11
sS'mkt_val_2012'
p12
S'ctl00_BodyContent_lbl_currmkt1'
p13
sS'res_type'
p14
S'ctl00_BodyContent_lbl_restype'
p15
sS'mkt_val_2011'
p16
S'ctl00_BodyContent_lbl_priormkt1'
p17
sS'ext_const'
p18
S'ctl00_BodyContent_lbl_extconst'
p19
sS'garage'
p20
S'ctl00_BodyContent_lbl_garage'
p21
sS'land_assessed_val_2011'
p22
S'ctl00_BodyContent_lbl_priorland'
p23
sS'land_assessed_val_2012'
p24
S'ctl00_BodyContent_lbl_currland'
p25
sS'half_bath'
p26
S'ctl00_BodyContent_lbl_halfbath'
p27
sS'pass_desc'
p28
S'ctl00_BodyContent_lbl_PassDescript'
p29
sS'bldg_sqft'
p30
S'ctl00_BodyContent_lbl_bsf'
p31
sS'full_bath'
p32
S'ctl00_BodyContent_lbl_fullbath'
p33
sS'bldg_av_2011'
p34
S'ctl00_BodyContent_lbl_Priorbldg'
p35
sS'bldg_av_2012'
p36
S'ctl00_BodyContent_lbl_currbldg'
p37
sS'cur_year'
p38
S'ctl00_BodyContent_lbl_PassYear'
p39
sS'address'
p40
S'ctl00_BodyContent_lbl_Address'
p41
sS'central_air'
p42
S'ctl00_BodyContent_lbl_CentralAir'
p43
sS'fireplace'
p44
S'ctl00_BodyContent_lbl_fireplace'
p45
sS'bldg_units'
p46
S'ctl00_BodyContent_lbl_units'
p47
sS'res_use'
p48
S'ctl00_BodyContent_lbl_puse'
p49
sS'last_year'
p50
S'ctl00_BodyContent_lbl_LastYear'
p51
sS'pass_decs'
p52
g29
sS'res_apts'
p53
S'ctl00_BodyContent_lbl_apts'
p54
sS'pass_year'
p55
g39
sS'pass_type'
p56
S'ctl00_BodyContent_lbl_PassDescript_2ndline'
p57
s.